; Function Attrs: mustprogress uwtable
define hidden void @_ZNK4cvc58internal19RealAlgebraicNumber10toRationalEv(ptr dead_on_unwind noalias writable sret(%"class.cvc5::internal::Rational") align 8 %0, ptr noundef nonnull align 8 dereferenceable(32) %1) local_unnamed_addr #0 align 2 personality ptr @__gxx_personality_v0 {
  tail call void @__gmpz_init_set(ptr noundef nonnull align 8 dereferenceable(32) %0, ptr noundef nonnull align 8 dereferenceable(32) %1)
  %3 = getelementptr inbounds nuw i8, ptr %0, i64 16
  %4 = getelementptr inbounds nuw i8, ptr %1, i64 16
  tail call void @__gmpz_init_set(ptr noundef nonnull %3, ptr noundef nonnull %4)
  invoke void @__gmpq_canonicalize(ptr noundef nonnull align 8 dereferenceable(32) %0)
          to label %_ZN4cvc58internal8RationalC2ERKS1_.exit unwind label %5

5:                                                ; preds = %2
  %6 = landingpad { ptr, i32 }
          cleanup
  invoke void @__gmpq_clear(ptr noundef nonnull align 8 dereferenceable(32) %0)
          to label %_ZN10__gmp_exprIA1_12__mpq_structS1_ED2Ev.exit.i unwind label %7

7:                                                ; preds = %5
  %8 = landingpad { ptr, i32 }
          catch ptr null
  %9 = extractvalue { ptr, i32 } %8, 0
  tail call void @__clang_call_terminate(ptr %9) #19
  unreachable

_ZN10__gmp_exprIA1_12__mpq_structS1_ED2Ev.exit.i: ; preds = %5
  resume { ptr, i32 } %6

_ZN4cvc58internal8RationalC2ERKS1_.exit:          ; preds = %2
  ret void
}